
test_2_branch/test_2_branch:     file format elf32-littleriscv


Disassembly of section .text:

00000000 <_start>:
   0:	00100093          	addi	x1,x0,1
   4:	00100113          	addi	x2,x0,1
   8:	00208463          	beq	x1,x2,10 <beq_success>
   c:	0180006f          	jal	x0,24 <beq_failure>

00000010 <beq_success>:
  10:	00001097          	auipc	x1,0x1
  14:	ff008093          	addi	x1,x1,-16 # 1000 <__DATA_BEGIN__>
  18:	00400793          	addi	x15,x0,4
  1c:	00000073          	ecall
  20:	0180006f          	jal	x0,38 <next_test>

00000024 <beq_failure>:
  24:	00001097          	auipc	x1,0x1
  28:	fe008093          	addi	x1,x1,-32 # 1004 <msg_failure>
  2c:	00400793          	addi	x15,x0,4
  30:	00000073          	ecall
  34:	11c0006f          	jal	x0,150 <end_program>

00000038 <next_test>:
  38:	00108093          	addi	x1,x1,1
  3c:	00700313          	addi	x6,x0,7
  40:	00609663          	bne	x1,x6,4c <test_loop>
  44:	00a00793          	addi	x15,x0,10
  48:	00000073          	ecall

0000004c <test_loop>:
  4c:	00f00193          	addi	x3,x0,15
  50:	00309463          	bne	x1,x3,58 <bne_success>
  54:	0180006f          	jal	x0,6c <bne_failure>

00000058 <bne_success>:
  58:	00001097          	auipc	x1,0x1
  5c:	fa808093          	addi	x1,x1,-88 # 1000 <__DATA_BEGIN__>
  60:	00400793          	addi	x15,x0,4
  64:	00000073          	ecall
  68:	fd1ff06f          	jal	x0,38 <next_test>

0000006c <bne_failure>:
  6c:	00001097          	auipc	x1,0x1
  70:	f9808093          	addi	x1,x1,-104 # 1004 <msg_failure>
  74:	00400793          	addi	x15,x0,4
  78:	00000073          	ecall
  7c:	0d40006f          	jal	x0,150 <end_program>
  80:	ffb00193          	addi	x3,x0,-5
  84:	0021c463          	blt	x3,x2,8c <blt_signed_success>
  88:	0180006f          	jal	x0,a0 <blt_signed_failure>

0000008c <blt_signed_success>:
  8c:	00001097          	auipc	x1,0x1
  90:	f7408093          	addi	x1,x1,-140 # 1000 <__DATA_BEGIN__>
  94:	00400793          	addi	x15,x0,4
  98:	00000073          	ecall
  9c:	f9dff06f          	jal	x0,38 <next_test>

000000a0 <blt_signed_failure>:
  a0:	00001097          	auipc	x1,0x1
  a4:	f6408093          	addi	x1,x1,-156 # 1004 <msg_failure>
  a8:	00400793          	addi	x15,x0,4
  ac:	00000073          	ecall
  b0:	0a00006f          	jal	x0,150 <end_program>
  b4:	fff00213          	addi	x4,x0,-1
  b8:	00226463          	bltu	x4,x2,c0 <bltu_success>
  bc:	0180006f          	jal	x0,d4 <bltu_failure>

000000c0 <bltu_success>:
  c0:	00001097          	auipc	x1,0x1
  c4:	f4008093          	addi	x1,x1,-192 # 1000 <__DATA_BEGIN__>
  c8:	00400793          	addi	x15,x0,4
  cc:	00000073          	ecall
  d0:	f69ff06f          	jal	x0,38 <next_test>

000000d4 <bltu_failure>:
  d4:	00001097          	auipc	x1,0x1
  d8:	f3008093          	addi	x1,x1,-208 # 1004 <msg_failure>
  dc:	00400793          	addi	x15,x0,4
  e0:	00000073          	ecall
  e4:	06c0006f          	jal	x0,150 <end_program>
  e8:	00f00293          	addi	x5,x0,15
  ec:	0022d463          	bge	x5,x2,f4 <bge_signed_success>
  f0:	0180006f          	jal	x0,108 <bge_signed_failure>

000000f4 <bge_signed_success>:
  f4:	00001097          	auipc	x1,0x1
  f8:	f0c08093          	addi	x1,x1,-244 # 1000 <__DATA_BEGIN__>
  fc:	00400793          	addi	x15,x0,4
 100:	00000073          	ecall
 104:	f35ff06f          	jal	x0,38 <next_test>

00000108 <bge_signed_failure>:
 108:	00001097          	auipc	x1,0x1
 10c:	efc08093          	addi	x1,x1,-260 # 1004 <msg_failure>
 110:	00400793          	addi	x15,x0,4
 114:	00000073          	ecall
 118:	0380006f          	jal	x0,150 <end_program>
 11c:	01400313          	addi	x6,x0,20
 120:	00237463          	bgeu	x6,x2,128 <bgeu_success>
 124:	0180006f          	jal	x0,13c <bgeu_failure>

00000128 <bgeu_success>:
 128:	00001097          	auipc	x1,0x1
 12c:	ed808093          	addi	x1,x1,-296 # 1000 <__DATA_BEGIN__>
 130:	00400793          	addi	x15,x0,4
 134:	00000073          	ecall
 138:	f01ff06f          	jal	x0,38 <next_test>

0000013c <bgeu_failure>:
 13c:	00001097          	auipc	x1,0x1
 140:	ec808093          	addi	x1,x1,-312 # 1004 <msg_failure>
 144:	00400793          	addi	x15,x0,4
 148:	00000073          	ecall
 14c:	0040006f          	jal	x0,150 <end_program>

00000150 <end_program>:
 150:	00a00793          	addi	x15,x0,10
 154:	00000073          	ecall
